target datalayout = "e-m:e-p270:32:32-p271:32:32-p272:64:64-i64:64-i128:128-f80:128-n8:16:32:64-S128"
target triple = "x86_64-pc-linux-gnu"

; Function Attrs: nounwind uwtable
define internal void @flip_endian(ptr noundef %0, ptr noundef %1, i64 noundef %2) #0 {
  %4 = alloca ptr, align 8
  %5 = alloca ptr, align 8
  %6 = alloca i64, align 8
  %7 = alloca i64, align 8
  store ptr %0, ptr %4, align 8, !tbaa !25
  store ptr %1, ptr %5, align 8, !tbaa !25
  store i64 %2, ptr %6, align 8, !tbaa !17
  call void @llvm.lifetime.start.p0(i64 8, ptr %7) #6
  store i64 0, ptr %7, align 8, !tbaa !17
  br label %8

8:                                                ; preds = %23, %3
  %9 = load i64, ptr %7, align 8, !tbaa !17
  %10 = load i64, ptr %6, align 8, !tbaa !17
  %11 = icmp ult i64 %9, %10
  br i1 %11, label %12, label %26

12:                                               ; preds = %8
  %13 = load ptr, ptr %5, align 8, !tbaa !25
  %14 = load i64, ptr %6, align 8, !tbaa !17
  %15 = sub i64 %14, 1
  %16 = load i64, ptr %7, align 8, !tbaa !17
  %17 = sub i64 %15, %16
  %18 = getelementptr inbounds nuw i8, ptr %13, i64 %17
  %19 = load i8, ptr %18, align 1, !tbaa !44
  %20 = load ptr, ptr %4, align 8, !tbaa !25
  %21 = load i64, ptr %7, align 8, !tbaa !17
  %22 = getelementptr inbounds nuw i8, ptr %20, i64 %21
  store i8 %19, ptr %22, align 1, !tbaa !44
  br label %23

23:                                               ; preds = %12
  %24 = load i64, ptr %7, align 8, !tbaa !17
  %25 = add i64 %24, 1
  store i64 %25, ptr %7, align 8, !tbaa !17
  br label %8, !llvm.loop !45

26:                                               ; preds = %8
  call void @llvm.lifetime.end.p0(i64 8, ptr %7) #6
  ret void
}

; Function Attrs: nounwind uwtable
define internal void @smallfelem_to_bin32(ptr noundef %0, ptr noundef %1) #0 {
  %3 = alloca ptr, align 8
  %4 = alloca ptr, align 8
  store ptr %0, ptr %3, align 8, !tbaa !25
  store ptr %1, ptr %4, align 8, !tbaa !27
  %5 = load ptr, ptr %4, align 8, !tbaa !27
  %6 = getelementptr inbounds i64, ptr %5, i64 0
  %7 = load i64, ptr %6, align 8, !tbaa !17
  %8 = load ptr, ptr %3, align 8, !tbaa !25
  %9 = getelementptr inbounds i8, ptr %8, i64 0
  store i64 %7, ptr %9, align 8, !tbaa !17
  %10 = load ptr, ptr %4, align 8, !tbaa !27
  %11 = getelementptr inbounds i64, ptr %10, i64 1
  %12 = load i64, ptr %11, align 8, !tbaa !17
  %13 = load ptr, ptr %3, align 8, !tbaa !25
  %14 = getelementptr inbounds i8, ptr %13, i64 8
  store i64 %12, ptr %14, align 8, !tbaa !17
  %15 = load ptr, ptr %4, align 8, !tbaa !27
  %16 = getelementptr inbounds i64, ptr %15, i64 2
  %17 = load i64, ptr %16, align 8, !tbaa !17
  %18 = load ptr, ptr %3, align 8, !tbaa !25
  %19 = getelementptr inbounds i8, ptr %18, i64 16
  store i64 %17, ptr %19, align 8, !tbaa !17
  %20 = load ptr, ptr %4, align 8, !tbaa !27
  %21 = getelementptr inbounds i64, ptr %20, i64 3
  %22 = load i64, ptr %21, align 8, !tbaa !17
  %23 = load ptr, ptr %3, align 8, !tbaa !25
  %24 = getelementptr inbounds i8, ptr %23, i64 24
  store i64 %22, ptr %24, align 8, !tbaa !17
  ret void
}

; Function Attrs: nounwind uwtable
define internal ptr @smallfelem_to_BN(ptr noundef %0, ptr noundef %1) #0 {
  %3 = alloca ptr, align 8
  %4 = alloca ptr, align 8
  %5 = alloca [32 x i8], align 16
  %6 = alloca [32 x i8], align 16
  store ptr %0, ptr %3, align 8, !tbaa !13
  store ptr %1, ptr %4, align 8, !tbaa !27
  call void @llvm.lifetime.start.p0(i64 32, ptr %5) #6
  call void @llvm.lifetime.start.p0(i64 32, ptr %6) #6
  %7 = getelementptr inbounds [32 x i8], ptr %5, i64 0, i64 0
  %8 = load ptr, ptr %4, align 8, !tbaa !27
  call void @smallfelem_to_bin32(ptr noundef %7, ptr noundef %8)
  %9 = getelementptr inbounds [32 x i8], ptr %6, i64 0, i64 0
  %10 = getelementptr inbounds [32 x i8], ptr %5, i64 0, i64 0
  call void @flip_endian(ptr noundef %9, ptr noundef %10, i64 noundef 32)
  %11 = getelementptr inbounds [32 x i8], ptr %6, i64 0, i64 0
  %12 = load ptr, ptr %3, align 8, !tbaa !13
  %13 = call ptr @BN_bin2bn(ptr noundef %11, i64 noundef 32, ptr noundef %12)
  call void @llvm.lifetime.end.p0(i64 32, ptr %6) #6
  call void @llvm.lifetime.end.p0(i64 32, ptr %5) #6
  ret ptr %13
}