; Function Attrs: nounwind uwtable
define internal fastcc ptr @smallfelem_to_BN(ptr noundef nonnull %0, ptr noundef nonnull readonly captures(none) %1) unnamed_addr #2 {
  %3 = alloca [32 x i8], align 16
  %4 = alloca [32 x i8], align 16
  call void @llvm.lifetime.start.p0(i64 32, ptr nonnull %3) #9
  call void @llvm.lifetime.start.p0(i64 32, ptr nonnull %4) #9
  %5 = load i64, ptr %1, align 8, !tbaa !18
  store i64 %5, ptr %3, align 16, !tbaa !18
  %6 = getelementptr inbounds nuw i8, ptr %1, i64 8
  %7 = load i64, ptr %6, align 8, !tbaa !18
  %8 = getelementptr inbounds nuw i8, ptr %3, i64 8
  store i64 %7, ptr %8, align 8, !tbaa !18
  %9 = getelementptr inbounds nuw i8, ptr %1, i64 16
  %10 = load i64, ptr %9, align 8, !tbaa !18
  %11 = getelementptr inbounds nuw i8, ptr %3, i64 16
  store i64 %10, ptr %11, align 16, !tbaa !18
  %12 = getelementptr inbounds nuw i8, ptr %1, i64 24
  %13 = load i64, ptr %12, align 8, !tbaa !18
  %14 = getelementptr inbounds nuw i8, ptr %3, i64 24
  store i64 %13, ptr %14, align 8, !tbaa !18
  %15 = getelementptr inbounds nuw i8, ptr %3, i64 32
  br label %16

16:                                               ; preds = %16, %2
  %.08.i = phi i64 [ 0, %2 ], [ %21, %16 ]
  %17 = xor i64 %.08.i, -1
  %18 = getelementptr i8, ptr %15, i64 %17
  %19 = load i8, ptr %18, align 1, !tbaa !20
  %20 = getelementptr inbounds nuw i8, ptr %4, i64 %.08.i
  store i8 %19, ptr %20, align 1, !tbaa !20
  %21 = add nuw nsw i64 %.08.i, 1
  %exitcond.not.i = icmp eq i64 %21, 32
  br i1 %exitcond.not.i, label %flip_endian.exit, label %16, !llvm.loop !21

flip_endian.exit:                                 ; preds = %16
  %22 = call ptr @BN_bin2bn(ptr noundef nonnull %4, i64 noundef 32, ptr noundef nonnull %0) #9
  call void @llvm.lifetime.end.p0(i64 32, ptr nonnull %4) #9
  call void @llvm.lifetime.end.p0(i64 32, ptr nonnull %3) #9
  ret ptr %22
}